Certificate:
    Data:
        Version: 1 (0x0)
        Serial Number: 3 (0x3)
    Signature Algorithm: md5WithRSAEncryption
        Issuer: O=dongnaoedu, OU=dongnao, CN=testca/emailAddress=805921455@qq.com
        Validity
            Not Before: Aug 20 00:24:56 2019 GMT
            Not After : Aug 19 00:24:56 2020 GMT
        Subject: O=ABCom, OU=servers, CN=servername
        Subject Public Key Info:
            Public Key Algorithm: rsaEncryption
                Public-Key: (1024 bit)
                Modulus:
                    00:d8:7f:58:8d:9a:f5:c3:96:2b:e3:30:01:1a:dd:
                    92:38:f3:d7:12:36:eb:86:2c:90:ee:b5:47:fb:1d:
                    39:d9:cf:b3:b0:cd:0b:fd:58:53:5c:4c:25:c0:e5:
                    54:a6:46:24:18:7d:8d:c7:e9:51:ed:56:04:55:01:
                    cb:72:ac:b3:18:96:40:0b:c4:84:f2:a2:e8:da:1e:
                    3b:69:c7:84:8b:0d:39:78:fe:3f:73:5e:d6:e6:4a:
                    5f:fe:6d:11:68:5a:ef:b2:da:1e:11:fe:fe:cc:10:
                    df:04:f2:07:fb:f5:7d:e6:6e:c8:be:f7:fa:43:b3:
                    b0:ce:9f:bb:08:7f:fd:6b:7f
                Exponent: 65537 (0x10001)
    Signature Algorithm: md5WithRSAEncryption
         32:54:3f:f1:78:a1:54:a0:14:be:ad:cf:7d:d5:87:ca:30:9a:
         80:a6:bb:af:19:3b:1d:7d:5c:64:e2:5b:19:36:4d:7b:84:45:
         2f:ed:60:9c:18:72:7f:c7:0f:f4:26:0f:b8:8d:c9:c3:84:27:
         78:77:7b:47:8d:ee:59:aa:e5:14:a5:88:f3:fd:b3:7f:bf:13:
         72:36:c6:71:41:60:a2:d0:45:c0:8f:6f:15:8e:55:2f:ad:0c:
         e6:0d:3e:9a:44:4a:00:2b:23:b3:82:2e:c8:f2:27:fd:a9:c4:
         17:7d:c1:bb:c6:f2:68:b4:95:1c:c1:04:ef:f2:d4:ce:0f:12:
         69:9c:27:1a:dd:e2:fd:76:38:17:53:36:84:df:97:95:d7:2d:
         6c:e2:cc:c2:98:48:37:2a:5e:73:83:cf:56:5e:07:32:41:75:
         2a:07:30:43:83:d6:69:da:08:ce:27:43:74:ac:49:c0:3e:49:
         4a:cf:ca:fe:b5:dd:b0:0a:91:7d:08:cc:93:48:76:4d:56:af:
         8e:f0:a1:e7:7b:af:20:92:3e:1e:d5:87:e8:9d:83:bc:0e:f1:
         45:da:ff:68:64:d9:f3:e6:76:54:a4:54:2c:4d:75:b7:66:87:
         2f:2a:10:44:96:f0:44:52:23:70:1a:69:8e:4f:04:37:0b:51:
         00:f2:80:81
-----BEGIN CERTIFICATE-----
MIICgDCCAWgCAQMwDQYJKoZIhvcNAQEEBQAwWTETMBEGA1UECgwKZG9uZ25hb2Vk
dTEQMA4GA1UECwwHZG9uZ25hbzEPMA0GA1UEAwwGdGVzdGNhMR8wHQYJKoZIhvcN
AQkBFhA4MDU5MjE0NTVAcXEuY29tMB4XDTE5MDgyMDAwMjQ1NloXDTIwMDgxOTAw
MjQ1NlowNzEOMAwGA1UECgwFQUJDb20xEDAOBgNVBAsMB3NlcnZlcnMxEzARBgNV
BAMMCnNlcnZlcm5hbWUwgZ8wDQYJKoZIhvcNAQEBBQADgY0AMIGJAoGBANh/WI2a
9cOWK+MwARrdkjjz1xI264YskO61R/sdOdnPs7DNC/1YU1xMJcDlVKZGJBh9jcfp
Ue1WBFUBy3KssxiWQAvEhPKi6NoeO2nHhIsNOXj+P3Ne1uZKX/5tEWha77LaHhH+
/swQ3wTyB/v1feZuyL73+kOzsM6fuwh//Wt/AgMBAAEwDQYJKoZIhvcNAQEEBQAD
ggEBADJUP/F4oVSgFL6tz33Vh8owmoCmu68ZOx19XGTiWxk2TXuERS/tYJwYcn/H
D/QmD7iNycOEJ3h3e0eN7lmq5RSliPP9s3+/E3I2xnFBYKLQRcCPbxWOVS+tDOYN
PppESgArI7OCLsjyJ/2pxBd9wbvG8mi0lRzBBO/y1M4PEmmcJxrd4v12OBdTNoTf
l5XXLWzizMKYSDcqXnODz1ZeBzJBdSoHMEOD1mnaCM4nQ3SsScA+SUrPyv613bAK
kX0IzJNIdk1Wr47woed7ryCSPh7Vh+idg7wO8UXa/2hk2fPmdlSkVCxNdbdmhy8q
EESW8ERSI3AaaY5PBDcLUQDygIE=
-----END CERTIFICATE-----
